; Function Attrs: mustprogress uwtable
define void @_ZN9grpc_core12FakeResolver14ShutdownLockedEv(ptr nocapture noundef nonnull align 8 dereferenceable(186) %this) unnamed_addr #3 align 2 personality ptr @__gxx_personality_v0 {
entry:
  %agg.tmp = alloca %"class.grpc_core::RefCountedPtr.27", align 8
  %shutdown_ = getelementptr inbounds i8, ptr %this, i64 185
  store i8 1, ptr %shutdown_, align 1
  %response_generator_ = getelementptr inbounds i8, ptr %this, i64 48
  %0 = load ptr, ptr %response_generator_, align 8
  %cmp.i.not = icmp eq ptr %0, null
  br i1 %cmp.i.not, label %if.end, label %if.then

if.then:                                          ; preds = %entry
  store ptr null, ptr %agg.tmp, align 8
  invoke void @_ZN9grpc_core29FakeResolverResponseGenerator15SetFakeResolverENS_13RefCountedPtrINS_12FakeResolverEEE(ptr noundef nonnull align 8 dereferenceable(185) %0, ptr noundef nonnull %agg.tmp)
          to label %invoke.cont unwind label %lpad

invoke.cont:                                      ; preds = %if.then
  %1 = load ptr, ptr %agg.tmp, align 8
  %cmp.not.i = icmp eq ptr %1, null
  br i1 %cmp.not.i, label %_ZN9grpc_core13RefCountedPtrINS_12FakeResolverEED2Ev.exit, label %if.then.i

if.then.i:                                        ; preds = %invoke.cont
  %refs_.i.i = getelementptr inbounds i8, ptr %1, i64 8
  %2 = atomicrmw sub ptr %refs_.i.i, i64 1 acq_rel, align 8
  %cmp.i.i.i = icmp eq i64 %2, 1
  br i1 %cmp.i.i.i, label %if.then.i.i, label %_ZN9grpc_core13RefCountedPtrINS_12FakeResolverEED2Ev.exit

if.then.i.i:                                      ; preds = %if.then.i
  %vtable.i.i.i = load ptr, ptr %1, align 8
  %vfn.i.i.i = getelementptr inbounds i8, ptr %vtable.i.i.i, i64 16
  %3 = load ptr, ptr %vfn.i.i.i, align 8
  tail call void %3(ptr noundef nonnull align 8 dereferenceable(16) %1) #17
  br label %_ZN9grpc_core13RefCountedPtrINS_12FakeResolverEED2Ev.exit

_ZN9grpc_core13RefCountedPtrINS_12FakeResolverEED2Ev.exit: ; preds = %invoke.cont, %if.then.i, %if.then.i.i
  %4 = load ptr, ptr %response_generator_, align 8
  store ptr null, ptr %response_generator_, align 8
  %cmp.not.i1 = icmp eq ptr %4, null
  br i1 %cmp.not.i1, label %if.end, label %if.then.i2

if.then.i2:                                       ; preds = %_ZN9grpc_core13RefCountedPtrINS_12FakeResolverEED2Ev.exit
  %refs_.i.i3 = getelementptr inbounds i8, ptr %4, i64 8
  %5 = atomicrmw sub ptr %refs_.i.i3, i64 1 acq_rel, align 8
  %cmp.i.i.i4 = icmp eq i64 %5, 1
  br i1 %cmp.i.i.i4, label %if.then.i.i5, label %if.end

if.then.i.i5:                                     ; preds = %if.then.i2
  %vtable.i.i.i6 = load ptr, ptr %4, align 8
  %vfn.i.i.i7 = getelementptr inbounds i8, ptr %vtable.i.i.i6, i64 8
  %6 = load ptr, ptr %vfn.i.i.i7, align 8
  tail call void %6(ptr noundef nonnull align 8 dereferenceable(185) %4) #17
  br label %if.end

lpad:                                             ; preds = %if.then
  %7 = landingpad { ptr, i32 }
          cleanup
  %8 = load ptr, ptr %agg.tmp, align 8
  %cmp.not.i8 = icmp eq ptr %8, null
  br i1 %cmp.not.i8, label %_ZN9grpc_core13RefCountedPtrINS_12FakeResolverEED2Ev.exit15, label %if.then.i9

if.then.i9:                                       ; preds = %lpad
  %refs_.i.i10 = getelementptr inbounds i8, ptr %8, i64 8
  %9 = atomicrmw sub ptr %refs_.i.i10, i64 1 acq_rel, align 8
  %cmp.i.i.i11 = icmp eq i64 %9, 1
  br i1 %cmp.i.i.i11, label %if.then.i.i12, label %_ZN9grpc_core13RefCountedPtrINS_12FakeResolverEED2Ev.exit15

if.then.i.i12:                                    ; preds = %if.then.i9
  %vtable.i.i.i13 = load ptr, ptr %8, align 8
  %vfn.i.i.i14 = getelementptr inbounds i8, ptr %vtable.i.i.i13, i64 16
  %10 = load ptr, ptr %vfn.i.i.i14, align 8
  tail call void %10(ptr noundef nonnull align 8 dereferenceable(16) %8) #17
  br label %_ZN9grpc_core13RefCountedPtrINS_12FakeResolverEED2Ev.exit15

_ZN9grpc_core13RefCountedPtrINS_12FakeResolverEED2Ev.exit15: ; preds = %lpad, %if.then.i9, %if.then.i.i12
  resume { ptr, i32 } %7

if.end:                                           ; preds = %if.then.i.i5, %if.then.i2, %_ZN9grpc_core13RefCountedPtrINS_12FakeResolverEED2Ev.exit, %entry
  ret void
}